	.file	"simplesync.c"
	.text
.Ltext0:
	.section	.rodata.str1.8,"aMS",@progbits,1
	.align 8
.LC0:
	.string	"About to increase variable %d times\n"
	.section	.rodata.str1.1,"aMS",@progbits,1
.LC1:
	.string	"Done increasing variable.\n"
	.text
	.p2align 4
	.globl	increase_fn
	.type	increase_fn, @function
increase_fn:
.LVL0:
.LFB23:
	.file 1 "simplesync.c"
	.loc 1 42 1 view -0
	.cfi_startproc
	.loc 1 43 2 view .LVU1
	.loc 1 44 2 view .LVU2
	.loc 1 42 1 is_stmt 0 view .LVU3
	subq	$24, %rsp
	.cfi_def_cfa_offset 32
	.loc 1 46 2 view .LVU4
	movl	$10000000, %edx
	leaq	.LC0(%rip), %rsi
	xorl	%eax, %eax
	.loc 1 44 16 view .LVU5
	movq	%rdi, 8(%rsp)
	.loc 1 46 2 is_stmt 1 view .LVU6
	movq	stderr(%rip), %rdi
.LVL1:
	.loc 1 46 2 is_stmt 0 view .LVU7
	call	fprintf@PLT
.LVL2:
	.loc 1 47 2 is_stmt 1 view .LVU8
	.loc 1 47 14 view .LVU9
	.loc 1 46 2 is_stmt 0 view .LVU10
	movl	$10000000, %eax
.LVL3:
	.p2align 4,,10
	.p2align 3
.L2:
	.loc 1 48 3 is_stmt 1 view .LVU11
	.loc 1 50 4 view .LVU12
	lock addq	$1, 8(%rsp)
	.loc 1 59 33 view .LVU13
	.loc 1 47 21 view .LVU14
.LVL4:
	.loc 1 47 14 view .LVU15
	.loc 1 47 2 is_stmt 0 view .LVU16
	subl	$1, %eax
.LVL5:
	.loc 1 47 2 view .LVU17
	jne	.L2
	.loc 1 62 2 is_stmt 1 view .LVU18
	movq	stderr(%rip), %rcx
	movl	$26, %edx
	movl	$1, %esi
	leaq	.LC1(%rip), %rdi
	call	fwrite@PLT
.LVL6:
	.loc 1 64 2 view .LVU19
	.loc 1 65 1 is_stmt 0 view .LVU20
	xorl	%eax, %eax
	addq	$24, %rsp
	.cfi_def_cfa_offset 8
	ret
	.cfi_endproc
.LFE23:
	.size	increase_fn, .-increase_fn
	.section	.rodata.str1.8
	.align 8
.LC2:
	.string	"About to decrease variable %d times\n"
	.section	.rodata.str1.1
.LC3:
	.string	"Done decreasing variable.\n"
	.text
	.p2align 4
	.globl	decrease_fn
	.type	decrease_fn, @function
decrease_fn:
.LVL7:
.LFB24:
	.loc 1 68 1 is_stmt 1 view -0
	.cfi_startproc
	.loc 1 69 2 view .LVU22
	.loc 1 70 2 view .LVU23
	.loc 1 68 1 is_stmt 0 view .LVU24
	subq	$24, %rsp
	.cfi_def_cfa_offset 32
	.loc 1 72 2 view .LVU25
	movl	$10000000, %edx
	leaq	.LC2(%rip), %rsi
	xorl	%eax, %eax
	.loc 1 70 16 view .LVU26
	movq	%rdi, 8(%rsp)
	.loc 1 72 2 is_stmt 1 view .LVU27
	movq	stderr(%rip), %rdi
.LVL8:
	.loc 1 72 2 is_stmt 0 view .LVU28
	call	fprintf@PLT
.LVL9:
	.loc 1 73 2 is_stmt 1 view .LVU29
	.loc 1 73 14 view .LVU30
	.loc 1 72 2 is_stmt 0 view .LVU31
	movl	$10000000, %eax
.LVL10:
	.p2align 4,,10
	.p2align 3
.L7:
	.loc 1 74 3 is_stmt 1 view .LVU32
	.loc 1 76 4 view .LVU33
	lock subq	$1, 8(%rsp)
	.loc 1 85 33 view .LVU34
	.loc 1 73 21 view .LVU35
.LVL11:
	.loc 1 73 14 view .LVU36
	.loc 1 73 2 is_stmt 0 view .LVU37
	subl	$1, %eax
.LVL12:
	.loc 1 73 2 view .LVU38
	jne	.L7
	.loc 1 88 2 is_stmt 1 view .LVU39
	movq	stderr(%rip), %rcx
	movl	$26, %edx
	movl	$1, %esi
	leaq	.LC3(%rip), %rdi
	call	fwrite@PLT
.LVL13:
	.loc 1 90 2 view .LVU40
	.loc 1 91 1 is_stmt 0 view .LVU41
	xorl	%eax, %eax
	addq	$24, %rsp
	.cfi_def_cfa_offset 8
	ret
	.cfi_endproc
.LFE24:
	.size	decrease_fn, .-decrease_fn
	.section	.rodata.str1.1
.LC4:
	.string	""
.LC5:
	.string	"NOT "
.LC6:
	.string	"pthread_create"
.LC7:
	.string	"pthread_join"
.LC8:
	.string	"lock destroy"
.LC9:
	.string	"%sOK, val = %d.\n"
	.section	.text.startup,"ax",@progbits
	.p2align 4
	.globl	main
	.type	main, @function
main:
.LVL14:
.LFB25:
	.loc 1 95 1 is_stmt 1 view -0
	.cfi_startproc
	.loc 1 96 2 view .LVU43
	.loc 1 97 2 view .LVU44
	.loc 1 102 2 view .LVU45
	.loc 1 95 1 is_stmt 0 view .LVU46
	pushq	%r12
	.cfi_def_cfa_offset 16
	.cfi_offset 12, -16
	.loc 1 107 8 view .LVU47
	xorl	%esi, %esi
.LVL15:
	.loc 1 107 8 view .LVU48
	leaq	increase_fn(%rip), %rdx
	.loc 1 95 1 view .LVU49
	pushq	%rbx
	.cfi_def_cfa_offset 24
	.cfi_offset 3, -24
	subq	$40, %rsp
	.cfi_def_cfa_offset 64
	.loc 1 107 8 view .LVU50
	leaq	12(%rsp), %r12
	leaq	16(%rsp), %rdi
	.loc 1 102 6 view .LVU51
	movl	$0, 12(%rsp)
	.loc 1 107 2 is_stmt 1 view .LVU52
	.loc 1 107 8 is_stmt 0 view .LVU53
	movq	%r12, %rcx
	call	pthread_create@PLT
.LVL16:
	.loc 1 108 2 is_stmt 1 view .LVU54
	.loc 1 108 5 is_stmt 0 view .LVU55
	testl	%eax, %eax
	jne	.L29
	.loc 1 112 2 is_stmt 1 view .LVU56
	.loc 1 112 8 is_stmt 0 view .LVU57
	leaq	24(%rsp), %rdi
	movq	%r12, %rcx
	leaq	decrease_fn(%rip), %rdx
	xorl	%esi, %esi
	call	pthread_create@PLT
.LVL17:
	.loc 1 112 8 view .LVU58
	movl	%eax, %ebx
.LVL18:
	.loc 1 113 2 is_stmt 1 view .LVU59
	.loc 1 113 5 is_stmt 0 view .LVU60
	testl	%eax, %eax
	jne	.L28
	.loc 1 121 2 is_stmt 1 view .LVU61
	.loc 1 121 8 is_stmt 0 view .LVU62
	movq	16(%rsp), %rdi
	xorl	%esi, %esi
	call	pthread_join@PLT
.LVL19:
	.loc 1 121 8 view .LVU63
	movl	%eax, %ebx
.LVL20:
	.loc 1 122 2 is_stmt 1 view .LVU64
	.loc 1 122 5 is_stmt 0 view .LVU65
	testl	%eax, %eax
	jne	.L30
.LVL21:
.L13:
	.loc 1 123 3 is_stmt 1 discriminator 1 view .LVU66
	.loc 1 124 2 discriminator 1 view .LVU67
	.loc 1 124 8 is_stmt 0 discriminator 1 view .LVU68
	movq	24(%rsp), %rdi
	xorl	%esi, %esi
	call	pthread_join@PLT
.LVL22:
	movl	%eax, %ebx
.LVL23:
	.loc 1 125 2 is_stmt 1 discriminator 1 view .LVU69
	.loc 1 125 5 is_stmt 0 discriminator 1 view .LVU70
	testl	%eax, %eax
	jne	.L31
.LVL24:
.L14:
	.loc 1 126 3 is_stmt 1 discriminator 1 view .LVU71
	.loc 1 129 2 discriminator 1 view .LVU72
	.loc 1 129 8 is_stmt 0 discriminator 1 view .LVU73
	leaq	lock(%rip), %rdi
	call	pthread_mutex_destroy@PLT
.LVL25:
	movl	%eax, %ebx
.LVL26:
	.loc 1 130 2 is_stmt 1 discriminator 1 view .LVU74
	.loc 1 130 5 is_stmt 0 discriminator 1 view .LVU75
	testl	%eax, %eax
	jne	.L32
.LVL27:
.L15:
	.loc 1 131 3 is_stmt 1 discriminator 1 view .LVU76
	.loc 1 133 2 discriminator 1 view .LVU77
	.loc 1 133 12 is_stmt 0 discriminator 1 view .LVU78
	movl	12(%rsp), %edx
	xorl	%r12d, %r12d
	.loc 1 135 2 discriminator 1 view .LVU79
	leaq	.LC5(%rip), %rax
	leaq	.LC4(%rip), %rsi
	leaq	.LC9(%rip), %rdi
	.loc 1 133 12 discriminator 1 view .LVU80
	testl	%edx, %edx
	.loc 1 135 2 discriminator 1 view .LVU81
	cmovne	%rax, %rsi
	.loc 1 133 12 discriminator 1 view .LVU82
	sete	%r12b
.LVL28:
	.loc 1 135 2 is_stmt 1 discriminator 1 view .LVU83
	xorl	%eax, %eax
	call	printf@PLT
.LVL29:
	.loc 1 137 2 discriminator 1 view .LVU84
	.loc 1 138 1 is_stmt 0 discriminator 1 view .LVU85
	addq	$40, %rsp
	.cfi_remember_state
	.cfi_def_cfa_offset 24
	movl	%r12d, %eax
.LVL30:
	.loc 1 138 1 discriminator 1 view .LVU86
	popq	%rbx
	.cfi_def_cfa_offset 16
.LVL31:
	.loc 1 138 1 discriminator 1 view .LVU87
	popq	%r12
	.cfi_def_cfa_offset 8
	ret
.LVL32:
.L30:
	.cfi_restore_state
	.loc 1 123 3 is_stmt 1 view .LVU88
	.loc 1 123 3 view .LVU89
	call	__errno_location@PLT
.LVL33:
	.loc 1 123 3 is_stmt 0 view .LVU90
	leaq	.LC7(%rip), %rdi
	movl	%ebx, (%rax)
	.loc 1 123 3 is_stmt 1 view .LVU91
	call	perror@PLT
.LVL34:
	jmp	.L13
.LVL35:
.L32:
	.loc 1 131 3 view .LVU92
	.loc 1 131 3 view .LVU93
	call	__errno_location@PLT
.LVL36:
	.loc 1 131 3 is_stmt 0 view .LVU94
	leaq	.LC8(%rip), %rdi
	movl	%ebx, (%rax)
	.loc 1 131 3 is_stmt 1 view .LVU95
	call	perror@PLT
.LVL37:
	jmp	.L15
.LVL38:
.L31:
	.loc 1 126 3 view .LVU96
	.loc 1 126 3 view .LVU97
	call	__errno_location@PLT
.LVL39:
	.loc 1 126 3 is_stmt 0 view .LVU98
	leaq	.LC7(%rip), %rdi
	movl	%ebx, (%rax)
	.loc 1 126 3 is_stmt 1 view .LVU99
	call	perror@PLT
.LVL40:
	jmp	.L14
.LVL41:
.L29:
	.loc 1 126 3 is_stmt 0 view .LVU100
	movl	%eax, %ebx
	.loc 1 109 3 is_stmt 1 view .LVU101
	.loc 1 109 3 view .LVU102
.LVL42:
.L28:
	.loc 1 114 3 view .LVU103
	.loc 1 114 3 view .LVU104
	call	__errno_location@PLT
.LVL43:
	leaq	.LC6(%rip), %rdi
	movl	%ebx, (%rax)
	.loc 1 114 3 view .LVU105
	call	perror@PLT
.LVL44:
	.loc 1 114 3 view .LVU106
	.loc 1 115 3 view .LVU107
	movl	$1, %edi
	call	exit@PLT
.LVL45:
	.cfi_endproc
.LFE25:
	.size	main, .-main
	.globl	lock
	.bss
	.align 32
	.type	lock, @object
	.size	lock, 40
lock:
	.zero	40
	.text
.Letext0:
	.file 2 "/usr/lib/gcc/x86_64-linux-gnu/10/include/stddef.h"
	.file 3 "/usr/include/x86_64-linux-gnu/bits/types.h"
	.file 4 "/usr/include/x86_64-linux-gnu/bits/types/struct_FILE.h"
	.file 5 "/usr/include/x86_64-linux-gnu/bits/types/FILE.h"
	.file 6 "/usr/include/x86_64-linux-gnu/bits/thread-shared-types.h"
	.file 7 "/usr/include/x86_64-linux-gnu/bits/struct_mutex.h"
	.file 8 "/usr/include/x86_64-linux-gnu/bits/pthreadtypes.h"
	.file 9 "/usr/include/stdio.h"
	.file 10 "/usr/include/pthread.h"
	.file 11 "/usr/include/errno.h"
	.file 12 "/usr/include/stdlib.h"
	.file 13 "<built-in>"
	.section	.note.GNU-stack,"",@progbits
